#include <math.h>
#include <stdio.h>
#include <stdlib.h>
#include <string.h>


int main(int argc, char* argv[])
{
	int n;
	scanf("%d",&n);
	if (n==0)
		printf("End");
	else 
	while (n!=1)
	{

		if (n%2==0)
		{
		n=n/2;
		printf ("%d/2=%d\n",n*2,n);
		}
	else if (n%2!=0)
	{
		printf("%d*3+1=%d\n",n,n*3+1);
		n=n*3+1;
	}
	}
	printf("End");
	return 0;


}
